; Function Attrs: mustprogress uwtable
define void @_ZN3g2o10strToUpperERKNSt7__cxx1112basic_stringIcSt11char_traitsIcESaIcEEE(ptr dead_on_unwind noalias nonnull writable sret(%"class.std::__cxx11::basic_string") align 8 %0, ptr noundef nonnull align 8 dereferenceable(32) %1) local_unnamed_addr #3 personality ptr @__gxx_personality_v0 {
  tail call void @_ZNSt7__cxx1112basic_stringIcSt11char_traitsIcESaIcEEC1Ev(ptr noundef nonnull align 8 dereferenceable(32) %0) #16
  %3 = tail call noundef i64 @_ZNKSt7__cxx1112basic_stringIcSt11char_traitsIcESaIcEE4sizeEv(ptr noundef nonnull align 8 dereferenceable(32) %1) #16
  invoke void @_ZNSt7__cxx1112basic_stringIcSt11char_traitsIcESaIcEE7reserveEm(ptr noundef nonnull align 8 dereferenceable(32) %0, i64 noundef %3)
          to label %4 unwind label %.loopexit.split-lp

4:                                                ; preds = %2
  %5 = tail call ptr @_ZNKSt7__cxx1112basic_stringIcSt11char_traitsIcESaIcEE5beginEv(ptr noundef nonnull align 8 dereferenceable(32) %1) #16
  %6 = tail call ptr @_ZNKSt7__cxx1112basic_stringIcSt11char_traitsIcESaIcEE3endEv(ptr noundef nonnull align 8 dereferenceable(32) %1) #16
  %.not5.i = icmp eq ptr %5, %6
  br i1 %.not5.i, label %"_ZSt9transformIN9__gnu_cxx17__normal_iteratorIPKcNSt7__cxx1112basic_stringIcSt11char_traitsIcESaIcEEEEESt20back_insert_iteratorIS9_EZN3g2o10strToUpperERKS9_E3$_0ET0_T_SI_SH_T1_.exit", label %.lr.ph.i

.lr.ph.i:                                         ; preds = %4, %.noexc
  %.sroa.02.06.i = phi ptr [ %11, %.noexc ], [ %5, %4 ]
  %7 = load i8, ptr %.sroa.02.06.i, align 1
  %8 = zext i8 %7 to i32
  %9 = tail call noundef i32 @toupper(i32 noundef %8) #17
  %10 = trunc i32 %9 to i8
  invoke void @_ZNSt7__cxx1112basic_stringIcSt11char_traitsIcESaIcEE9push_backEc(ptr noundef nonnull align 8 dereferenceable(32) %0, i8 noundef signext %10)
          to label %.noexc unwind label %.loopexit

.noexc:                                           ; preds = %.lr.ph.i
  %11 = getelementptr inbounds i8, ptr %.sroa.02.06.i, i64 1
  %.not.i = icmp eq ptr %11, %6
  br i1 %.not.i, label %"_ZSt9transformIN9__gnu_cxx17__normal_iteratorIPKcNSt7__cxx1112basic_stringIcSt11char_traitsIcESaIcEEEEESt20back_insert_iteratorIS9_EZN3g2o10strToUpperERKS9_E3$_0ET0_T_SI_SH_T1_.exit", label %.lr.ph.i, !llvm.loop !6

.loopexit:                                        ; preds = %.lr.ph.i
  %lpad.loopexit = landingpad { ptr, i32 }
          cleanup
  br label %12

.loopexit.split-lp:                               ; preds = %2
  %lpad.loopexit.split-lp = landingpad { ptr, i32 }
          cleanup
  br label %12

12:                                               ; preds = %.loopexit.split-lp, %.loopexit
  %lpad.phi = phi { ptr, i32 } [ %lpad.loopexit, %.loopexit ], [ %lpad.loopexit.split-lp, %.loopexit.split-lp ]
  tail call void @_ZNSt7__cxx1112basic_stringIcSt11char_traitsIcESaIcEED1Ev(ptr noundef nonnull align 8 dereferenceable(32) %0) #16
  resume { ptr, i32 } %lpad.phi

"_ZSt9transformIN9__gnu_cxx17__normal_iteratorIPKcNSt7__cxx1112basic_stringIcSt11char_traitsIcESaIcEEEEESt20back_insert_iteratorIS9_EZN3g2o10strToUpperERKS9_E3$_0ET0_T_SI_SH_T1_.exit": ; preds = %.noexc, %4
  ret void
}